target datalayout = "e-m:e-p270:32:32-p271:32:32-p272:64:64-i64:64-i128:128-f80:128-n8:16:32:64-S128"
target triple = "x86_64-pc-linux-gnu"

%struct.AVFilterContext = type { ptr, ptr, ptr, ptr, ptr, i32, ptr, ptr, i32, ptr, ptr, i32, i32, ptr, ptr, ptr, ptr, i32, ptr, i32, i32 }
%struct.FFDrawContext = type { ptr, i32, i32, [4 x i32], [4 x i8], [4 x i8], i8, i8, i32, i32, i32, [3 x [3 x double]] }
%struct.FFDrawColor = type { [4 x i8], [4 x %union.anon.2] }
%union.anon.2 = type { [4 x i32] }
%struct.AVFilterLink = type { ptr, ptr, ptr, ptr, i32, i32, i32, i32, %struct.AVRational, i32, i32, i32, %struct.AVChannelLayout, %struct.AVRational, ptr, i32, %struct.AVFilterFormatsConfig, %struct.AVFilterFormatsConfig }
%struct.AVChannelLayout = type { i32, i32, %union.anon.1, ptr }
%union.anon.1 = type { i64 }
%struct.AVRational = type { i32, i32 }
%struct.AVFilterFormatsConfig = type { ptr, ptr, ptr, ptr, ptr }
%struct.DatascopeContext = type { ptr, i32, i32, i32, i32, i32, i32, i32, i32, float, i32, i32, i32, %struct.FFDrawContext, %struct.FFDrawColor, %struct.FFDrawColor, %struct.FFDrawColor, %struct.FFDrawColor, ptr, ptr, ptr }
%struct.AVPixFmtDescriptor = type { ptr, i8, i8, i8, i64, [4 x %struct.AVComponentDescriptor], ptr }
%struct.AVComponentDescriptor = type { i32, i32, i32, i32, i32 }

@.str.8 = private unnamed_addr constant [36 x i8] c"Failed to initialize FFDrawContext\0A\00", align 1

; Function Attrs: nounwind uwtable
define internal i32 @config_input(ptr noundef %0) #0 {
  %2 = alloca i32, align 4
  %3 = alloca ptr, align 8
  %4 = alloca ptr, align 8
  %5 = alloca ptr, align 8
  %6 = alloca i8, align 1
  %7 = alloca i32, align 4
  %8 = alloca i32, align 4
  %9 = alloca [4 x i8], align 1
  %10 = alloca [4 x i8], align 1
  %11 = alloca [4 x i8], align 1
  %12 = alloca [4 x i8], align 1
  store ptr %0, ptr %3, align 8, !tbaa !26
  call void @llvm.lifetime.start.p0(i64 8, ptr %4) #11
  %13 = load ptr, ptr %3, align 8, !tbaa !26
  %14 = getelementptr inbounds nuw %struct.AVFilterLink, ptr %13, i32 0, i32 2
  %15 = load ptr, ptr %14, align 8, !tbaa !33
  store ptr %15, ptr %4, align 8, !tbaa !4
  call void @llvm.lifetime.start.p0(i64 8, ptr %5) #11
  %16 = load ptr, ptr %4, align 8, !tbaa !4
  %17 = getelementptr inbounds nuw %struct.AVFilterContext, ptr %16, i32 0, i32 9
  %18 = load ptr, ptr %17, align 8, !tbaa !28
  store ptr %18, ptr %5, align 8, !tbaa !41
  call void @llvm.lifetime.start.p0(i64 1, ptr %6) #11
  %19 = load ptr, ptr %5, align 8, !tbaa !41
  %20 = getelementptr inbounds nuw %struct.DatascopeContext, ptr %19, i32 0, i32 9
  %21 = load float, ptr %20, align 8, !tbaa !69
  %22 = fmul nsz float %21, 2.550000e+02
  %23 = fptoui float %22 to i8
  store i8 %23, ptr %6, align 1, !tbaa !70
  call void @llvm.lifetime.start.p0(i64 4, ptr %7) #11
  %24 = load ptr, ptr %3, align 8, !tbaa !26
  %25 = getelementptr inbounds nuw %struct.AVFilterLink, ptr %24, i32 0, i32 5
  %26 = load i32, ptr %25, align 4, !tbaa !71
  %27 = call i32 @av_pix_fmt_count_planes(i32 noundef %26)
  %28 = load ptr, ptr %5, align 8, !tbaa !41
  %29 = getelementptr inbounds nuw %struct.DatascopeContext, ptr %28, i32 0, i32 10
  store i32 %27, ptr %29, align 4, !tbaa !44
  %30 = load ptr, ptr %5, align 8, !tbaa !41
  %31 = getelementptr inbounds nuw %struct.DatascopeContext, ptr %30, i32 0, i32 13
  %32 = load ptr, ptr %3, align 8, !tbaa !26
  %33 = getelementptr inbounds nuw %struct.AVFilterLink, ptr %32, i32 0, i32 5
  %34 = load i32, ptr %33, align 4, !tbaa !71
  %35 = load ptr, ptr %3, align 8, !tbaa !26
  %36 = getelementptr inbounds nuw %struct.AVFilterLink, ptr %35, i32 0, i32 9
  %37 = load i32, ptr %36, align 8, !tbaa !72
  %38 = load ptr, ptr %3, align 8, !tbaa !26
  %39 = getelementptr inbounds nuw %struct.AVFilterLink, ptr %38, i32 0, i32 10
  %40 = load i32, ptr %39, align 4, !tbaa !73
  %41 = call i32 @ff_draw_init2(ptr noundef %31, i32 noundef %34, i32 noundef %37, i32 noundef %40, i32 noundef 0)
  store i32 %41, ptr %7, align 4, !tbaa !14
  %42 = load i32, ptr %7, align 4, !tbaa !14
  %43 = icmp slt i32 %42, 0
  br i1 %43, label %44, label %47

44:                                               ; preds = %1
  %45 = load ptr, ptr %4, align 8, !tbaa !4
  call void (ptr, i32, ptr, ...) @av_log(ptr noundef %45, i32 noundef 16, ptr noundef @.str.8)
  %46 = load i32, ptr %7, align 4, !tbaa !14
  store i32 %46, ptr %2, align 4
  store i32 1, ptr %8, align 4
  br label %140

47:                                               ; preds = %1
  %48 = load ptr, ptr %5, align 8, !tbaa !41
  %49 = getelementptr inbounds nuw %struct.DatascopeContext, ptr %48, i32 0, i32 13
  %50 = load ptr, ptr %5, align 8, !tbaa !41
  %51 = getelementptr inbounds nuw %struct.DatascopeContext, ptr %50, i32 0, i32 15
  store i8 -1, ptr %9, align 1, !tbaa !70
  %52 = getelementptr inbounds i8, ptr %9, i64 1
  store i8 -1, ptr %52, align 1, !tbaa !70
  %53 = getelementptr inbounds i8, ptr %9, i64 2
  store i8 -1, ptr %53, align 1, !tbaa !70
  %54 = getelementptr inbounds i8, ptr %9, i64 3
  store i8 -1, ptr %54, align 1, !tbaa !70
  %55 = getelementptr inbounds [4 x i8], ptr %9, i64 0, i64 0
  call void @ff_draw_color(ptr noundef %49, ptr noundef %51, ptr noundef %55)
  %56 = load ptr, ptr %5, align 8, !tbaa !41
  %57 = getelementptr inbounds nuw %struct.DatascopeContext, ptr %56, i32 0, i32 13
  %58 = load ptr, ptr %5, align 8, !tbaa !41
  %59 = getelementptr inbounds nuw %struct.DatascopeContext, ptr %58, i32 0, i32 16
  store i8 0, ptr %10, align 1, !tbaa !70
  %60 = getelementptr inbounds i8, ptr %10, i64 1
  store i8 0, ptr %60, align 1, !tbaa !70
  %61 = getelementptr inbounds i8, ptr %10, i64 2
  store i8 0, ptr %61, align 1, !tbaa !70
  %62 = getelementptr inbounds i8, ptr %10, i64 3
  %63 = load i8, ptr %6, align 1, !tbaa !70
  store i8 %63, ptr %62, align 1, !tbaa !70
  %64 = getelementptr inbounds [4 x i8], ptr %10, i64 0, i64 0
  call void @ff_draw_color(ptr noundef %57, ptr noundef %59, ptr noundef %64)
  %65 = load ptr, ptr %5, align 8, !tbaa !41
  %66 = getelementptr inbounds nuw %struct.DatascopeContext, ptr %65, i32 0, i32 13
  %67 = load ptr, ptr %5, align 8, !tbaa !41
  %68 = getelementptr inbounds nuw %struct.DatascopeContext, ptr %67, i32 0, i32 14
  store i8 -1, ptr %11, align 1, !tbaa !70
  %69 = getelementptr inbounds i8, ptr %11, i64 1
  store i8 -1, ptr %69, align 1, !tbaa !70
  %70 = getelementptr inbounds i8, ptr %11, i64 2
  store i8 0, ptr %70, align 1, !tbaa !70
  %71 = getelementptr inbounds i8, ptr %11, i64 3
  store i8 -1, ptr %71, align 1, !tbaa !70
  %72 = getelementptr inbounds [4 x i8], ptr %11, i64 0, i64 0
  call void @ff_draw_color(ptr noundef %66, ptr noundef %68, ptr noundef %72)
  %73 = load ptr, ptr %5, align 8, !tbaa !41
  %74 = getelementptr inbounds nuw %struct.DatascopeContext, ptr %73, i32 0, i32 13
  %75 = load ptr, ptr %5, align 8, !tbaa !41
  %76 = getelementptr inbounds nuw %struct.DatascopeContext, ptr %75, i32 0, i32 17
  store i8 77, ptr %12, align 1, !tbaa !70
  %77 = getelementptr inbounds i8, ptr %12, i64 1
  store i8 77, ptr %77, align 1, !tbaa !70
  %78 = getelementptr inbounds i8, ptr %12, i64 2
  store i8 77, ptr %78, align 1, !tbaa !70
  %79 = getelementptr inbounds i8, ptr %12, i64 3
  store i8 -1, ptr %79, align 1, !tbaa !70
  %80 = getelementptr inbounds [4 x i8], ptr %12, i64 0, i64 0
  call void @ff_draw_color(ptr noundef %74, ptr noundef %76, ptr noundef %80)
  %81 = load ptr, ptr %5, align 8, !tbaa !41
  %82 = getelementptr inbounds nuw %struct.DatascopeContext, ptr %81, i32 0, i32 13
  %83 = getelementptr inbounds nuw %struct.FFDrawContext, ptr %82, i32 0, i32 0
  %84 = load ptr, ptr %83, align 8, !tbaa !74
  %85 = getelementptr inbounds nuw %struct.AVPixFmtDescriptor, ptr %84, i32 0, i32 5
  %86 = getelementptr inbounds [4 x %struct.AVComponentDescriptor], ptr %85, i64 0, i64 0
  %87 = getelementptr inbounds nuw %struct.AVComponentDescriptor, ptr %86, i32 0, i32 4
  %88 = load i32, ptr %87, align 8, !tbaa !75
  %89 = add nsw i32 %88, 7
  %90 = sdiv i32 %89, 8
  %91 = mul nsw i32 %90, 2
  %92 = load ptr, ptr %5, align 8, !tbaa !41
  %93 = getelementptr inbounds nuw %struct.DatascopeContext, ptr %92, i32 0, i32 6
  %94 = load i32, ptr %93, align 4, !tbaa !77
  %95 = add nsw i32 %91, %94
  %96 = load ptr, ptr %5, align 8, !tbaa !41
  %97 = getelementptr inbounds nuw %struct.DatascopeContext, ptr %96, i32 0, i32 12
  store i32 %95, ptr %97, align 4, !tbaa !57
  %98 = load ptr, ptr %5, align 8, !tbaa !41
  %99 = getelementptr inbounds nuw %struct.DatascopeContext, ptr %98, i32 0, i32 13
  %100 = getelementptr inbounds nuw %struct.FFDrawContext, ptr %99, i32 0, i32 0
  %101 = load ptr, ptr %100, align 8, !tbaa !74
  %102 = getelementptr inbounds nuw %struct.AVPixFmtDescriptor, ptr %101, i32 0, i32 1
  %103 = load i8, ptr %102, align 8, !tbaa !78
  %104 = zext i8 %103 to i32
  %105 = load ptr, ptr %5, align 8, !tbaa !41
  %106 = getelementptr inbounds nuw %struct.DatascopeContext, ptr %105, i32 0, i32 11
  store i32 %104, ptr %106, align 8, !tbaa !50
  %107 = load ptr, ptr %5, align 8, !tbaa !41
  %108 = getelementptr inbounds nuw %struct.DatascopeContext, ptr %107, i32 0, i32 5
  %109 = load i32, ptr %108, align 8, !tbaa !81
  switch i32 %109, label %119 [
    i32 0, label %110
    i32 1, label %113
    i32 2, label %116
  ]

110:                                              ; preds = %47
  %111 = load ptr, ptr %5, align 8, !tbaa !41
  %112 = getelementptr inbounds nuw %struct.DatascopeContext, ptr %111, i32 0, i32 20
  store ptr @filter_mono, ptr %112, align 8, !tbaa !68
  br label %119

113:                                              ; preds = %47
  %114 = load ptr, ptr %5, align 8, !tbaa !41
  %115 = getelementptr inbounds nuw %struct.DatascopeContext, ptr %114, i32 0, i32 20
  store ptr @filter_color, ptr %115, align 8, !tbaa !68
  br label %119

116:                                              ; preds = %47
  %117 = load ptr, ptr %5, align 8, !tbaa !41
  %118 = getelementptr inbounds nuw %struct.DatascopeContext, ptr %117, i32 0, i32 20
  store ptr @filter_color2, ptr %118, align 8, !tbaa !68
  br label %119

119:                                              ; preds = %47, %116, %113, %110
  %120 = load ptr, ptr %5, align 8, !tbaa !41
  %121 = getelementptr inbounds nuw %struct.DatascopeContext, ptr %120, i32 0, i32 13
  %122 = getelementptr inbounds nuw %struct.FFDrawContext, ptr %121, i32 0, i32 0
  %123 = load ptr, ptr %122, align 8, !tbaa !74
  %124 = getelementptr inbounds nuw %struct.AVPixFmtDescriptor, ptr %123, i32 0, i32 5
  %125 = getelementptr inbounds [4 x %struct.AVComponentDescriptor], ptr %124, i64 0, i64 0
  %126 = getelementptr inbounds nuw %struct.AVComponentDescriptor, ptr %125, i32 0, i32 4
  %127 = load i32, ptr %126, align 8, !tbaa !75
  %128 = icmp sle i32 %127, 8
  br i1 %128, label %129, label %134

129:                                              ; preds = %119
  %130 = load ptr, ptr %5, align 8, !tbaa !41
  %131 = getelementptr inbounds nuw %struct.DatascopeContext, ptr %130, i32 0, i32 18
  store ptr @pick_color8, ptr %131, align 8, !tbaa !82
  %132 = load ptr, ptr %5, align 8, !tbaa !41
  %133 = getelementptr inbounds nuw %struct.DatascopeContext, ptr %132, i32 0, i32 19
  store ptr @reverse_color8, ptr %133, align 8, !tbaa !83
  br label %139

134:                                              ; preds = %119
  %135 = load ptr, ptr %5, align 8, !tbaa !41
  %136 = getelementptr inbounds nuw %struct.DatascopeContext, ptr %135, i32 0, i32 18
  store ptr @pick_color16, ptr %136, align 8, !tbaa !82
  %137 = load ptr, ptr %5, align 8, !tbaa !41
  %138 = getelementptr inbounds nuw %struct.DatascopeContext, ptr %137, i32 0, i32 19
  store ptr @reverse_color16, ptr %138, align 8, !tbaa !83
  br label %139

139:                                              ; preds = %134, %129
  store i32 0, ptr %2, align 4
  store i32 1, ptr %8, align 4
  br label %140

140:                                              ; preds = %139, %44
  call void @llvm.lifetime.end.p0(i64 4, ptr %7) #11
  call void @llvm.lifetime.end.p0(i64 1, ptr %6) #11
  call void @llvm.lifetime.end.p0(i64 8, ptr %5) #11
  call void @llvm.lifetime.end.p0(i64 8, ptr %4) #11
  %141 = load i32, ptr %2, align 4
  ret i32 %141
}