; Function Attrs: nounwind uwtable
define internal range(i32 -2147483648, 1) i32 @config_input(ptr noundef readonly captures(none) %0) #0 {
  %2 = alloca [4 x i8], align 4
  %3 = alloca [4 x i8], align 1
  %4 = alloca [4 x i8], align 1
  %5 = alloca [4 x i8], align 1
  %6 = getelementptr inbounds nuw i8, ptr %0, i64 16
  %7 = load ptr, ptr %6, align 8, !tbaa !25
  %8 = getelementptr inbounds nuw i8, ptr %7, i64 72
  %9 = load ptr, ptr %8, align 8, !tbaa !22
  %10 = getelementptr inbounds nuw i8, ptr %9, i64 40
  %11 = load float, ptr %10, align 8, !tbaa !69
  %12 = getelementptr inbounds nuw i8, ptr %0, i64 36
  %13 = load i32, ptr %12, align 4, !tbaa !70
  %14 = tail call i32 @av_pix_fmt_count_planes(i32 noundef %13) #15
  %15 = getelementptr inbounds nuw i8, ptr %9, i64 44
  store i32 %14, ptr %15, align 4, !tbaa !35
  %16 = getelementptr inbounds nuw i8, ptr %9, i64 56
  %17 = load i32, ptr %12, align 4, !tbaa !70
  %18 = getelementptr inbounds nuw i8, ptr %0, i64 56
  %19 = load i32, ptr %18, align 8, !tbaa !71
  %20 = getelementptr inbounds nuw i8, ptr %0, i64 60
  %21 = load i32, ptr %20, align 4, !tbaa !72
  %22 = tail call i32 @ff_draw_init2(ptr noundef nonnull %16, i32 noundef %17, i32 noundef %19, i32 noundef %21, i32 noundef 0) #15
  %23 = icmp slt i32 %22, 0
  br i1 %23, label %24, label %25

24:                                               ; preds = %1
  tail call void (ptr, i32, ptr, ...) @av_log(ptr noundef nonnull %7, i32 noundef 16, ptr noundef nonnull @.str.8) #15
  br label %66

25:                                               ; preds = %1
  %26 = fmul nsz float %11, 2.550000e+02
  %27 = fptoui float %26 to i8
  %28 = getelementptr inbounds nuw i8, ptr %9, i64 252
  store i32 -1, ptr %2, align 4
  call void @ff_draw_color(ptr noundef nonnull %16, ptr noundef nonnull %28, ptr noundef nonnull %2) #15
  %29 = getelementptr inbounds nuw i8, ptr %9, i64 320
  store i8 0, ptr %3, align 1, !tbaa !51
  %30 = getelementptr inbounds nuw i8, ptr %3, i64 1
  store i8 0, ptr %30, align 1, !tbaa !51
  %31 = getelementptr inbounds nuw i8, ptr %3, i64 2
  store i8 0, ptr %31, align 1, !tbaa !51
  %32 = getelementptr inbounds nuw i8, ptr %3, i64 3
  store i8 %27, ptr %32, align 1, !tbaa !51
  call void @ff_draw_color(ptr noundef nonnull %16, ptr noundef nonnull %29, ptr noundef nonnull %3) #15
  %33 = getelementptr inbounds nuw i8, ptr %9, i64 184
  store i8 -1, ptr %4, align 1, !tbaa !51
  %34 = getelementptr inbounds nuw i8, ptr %4, i64 1
  store i8 -1, ptr %34, align 1, !tbaa !51
  %35 = getelementptr inbounds nuw i8, ptr %4, i64 2
  store i8 0, ptr %35, align 1, !tbaa !51
  %36 = getelementptr inbounds nuw i8, ptr %4, i64 3
  store i8 -1, ptr %36, align 1, !tbaa !51
  call void @ff_draw_color(ptr noundef nonnull %16, ptr noundef nonnull %33, ptr noundef nonnull %4) #15
  %37 = getelementptr inbounds nuw i8, ptr %9, i64 388
  store i8 77, ptr %5, align 1, !tbaa !51
  %38 = getelementptr inbounds nuw i8, ptr %5, i64 1
  store i8 77, ptr %38, align 1, !tbaa !51
  %39 = getelementptr inbounds nuw i8, ptr %5, i64 2
  store i8 77, ptr %39, align 1, !tbaa !51
  %40 = getelementptr inbounds nuw i8, ptr %5, i64 3
  store i8 -1, ptr %40, align 1, !tbaa !51
  call void @ff_draw_color(ptr noundef nonnull %16, ptr noundef nonnull %37, ptr noundef nonnull %5) #15
  %41 = load ptr, ptr %16, align 8, !tbaa !73
  %42 = getelementptr inbounds nuw i8, ptr %41, i64 40
  %43 = load i32, ptr %42, align 8, !tbaa !74
  %44 = add nsw i32 %43, 7
  %45 = sdiv i32 %44, 8
  %46 = shl nsw i32 %45, 1
  %47 = getelementptr inbounds nuw i8, ptr %9, i64 28
  %48 = load i32, ptr %47, align 4, !tbaa !76
  %49 = add nsw i32 %46, %48
  %50 = getelementptr inbounds nuw i8, ptr %9, i64 52
  store i32 %49, ptr %50, align 4, !tbaa !48
  %51 = getelementptr inbounds nuw i8, ptr %41, i64 8
  %52 = load i8, ptr %51, align 8, !tbaa !77
  %53 = zext i8 %52 to i32
  %54 = getelementptr inbounds nuw i8, ptr %9, i64 48
  store i32 %53, ptr %54, align 8, !tbaa !41
  %55 = getelementptr inbounds nuw i8, ptr %9, i64 24
  %56 = load i32, ptr %55, align 8, !tbaa !79
  %57 = icmp ult i32 %56, 3
  br i1 %57, label %switch.lookup, label %60

switch.lookup:                                    ; preds = %25
  %58 = zext nneg i32 %56 to i64
  %switch.gep = getelementptr inbounds nuw [3 x ptr], ptr @switch.table.config_input, i64 0, i64 %58
  %switch.load = load ptr, ptr %switch.gep, align 8
  %59 = getelementptr inbounds nuw i8, ptr %9, i64 472
  store ptr %switch.load, ptr %59, align 8, !tbaa !68
  br label %60

60:                                               ; preds = %25, %switch.lookup
  %61 = icmp slt i32 %43, 9
  %62 = getelementptr inbounds nuw i8, ptr %9, i64 456
  %63 = getelementptr inbounds nuw i8, ptr %9, i64 464
  br i1 %61, label %64, label %65

64:                                               ; preds = %60
  store ptr @pick_color8, ptr %62, align 8, !tbaa !80
  store ptr @reverse_color8, ptr %63, align 8, !tbaa !81
  br label %66

65:                                               ; preds = %60
  store ptr @pick_color16, ptr %62, align 8, !tbaa !80
  store ptr @reverse_color16, ptr %63, align 8, !tbaa !81
  br label %66

66:                                               ; preds = %64, %65, %24
  %.0 = phi i32 [ %22, %24 ], [ 0, %65 ], [ 0, %64 ]
  ret i32 %.0
}